target datalayout = "e-m:e-p270:32:32-p271:32:32-p272:64:64-i64:64-i128:128-f80:128-n8:16:32:64-S128"
target triple = "x86_64-pc-linux-gnu"

%struct.AVRational = type { i32, i32 }
%struct.AVChannelLayout = type { i32, i32, %union.anon, ptr }
%union.anon = type { i64 }
%struct.AVFilterContext = type { ptr, ptr, ptr, ptr, ptr, i32, ptr, ptr, i32, ptr, ptr, i32, i32, ptr, ptr, ptr, ptr, i32, ptr, i32, i32 }
%struct.BufferSourceContext = type { ptr, %struct.AVRational, %struct.AVRational, i32, i32, i32, i32, i32, i32, i32, i32, i32, i32, i32, %struct.AVRational, ptr, i32, i32, i32, %struct.AVChannelLayout, ptr, i32, i32, i64, i32, i32 }

; Function Attrs: nounwind uwtable
define internal i32 @push_frame(ptr noundef %0) #0 {
  %2 = alloca i32, align 4
  %3 = alloca ptr, align 8
  %4 = alloca i32, align 4
  %5 = alloca i32, align 4
  store ptr %0, ptr %3, align 8, !tbaa !113
  call void @llvm.lifetime.start.p0(i64 4, ptr %4) #7
  br label %6

6:                                                ; preds = %18, %1
  br label %7

7:                                                ; preds = %6
  %8 = load ptr, ptr %3, align 8, !tbaa !113
  %9 = call i32 @ff_filter_graph_run_once(ptr noundef %8)
  store i32 %9, ptr %4, align 4, !tbaa !36
  %10 = load i32, ptr %4, align 4, !tbaa !36
  %11 = icmp eq i32 %10, -11
  br i1 %11, label %12, label %13

12:                                               ; preds = %7
  br label %19

13:                                               ; preds = %7
  %14 = load i32, ptr %4, align 4, !tbaa !36
  %15 = icmp slt i32 %14, 0
  br i1 %15, label %16, label %18

16:                                               ; preds = %13
  %17 = load i32, ptr %4, align 4, !tbaa !36
  store i32 %17, ptr %2, align 4
  store i32 1, ptr %5, align 4
  br label %20

18:                                               ; preds = %13
  br label %6

19:                                               ; preds = %12
  store i32 0, ptr %2, align 4
  store i32 1, ptr %5, align 4
  br label %20

20:                                               ; preds = %19, %16
  call void @llvm.lifetime.end.p0(i64 4, ptr %4) #7
  %21 = load i32, ptr %2, align 4
  ret i32 %21
}

; Function Attrs: nounwind uwtable
define i32 @av_buffersrc_close(ptr noundef %0, i64 noundef %1, i32 noundef %2) #0 {
  %4 = alloca ptr, align 8
  %5 = alloca i64, align 8
  %6 = alloca i32, align 4
  %7 = alloca ptr, align 8
  store ptr %0, ptr %4, align 8, !tbaa !19
  store i64 %1, ptr %5, align 8, !tbaa !109
  store i32 %2, ptr %6, align 4, !tbaa !36
  call void @llvm.lifetime.start.p0(i64 8, ptr %7) #7
  %8 = load ptr, ptr %4, align 8, !tbaa !19
  %9 = getelementptr inbounds nuw %struct.AVFilterContext, ptr %8, i32 0, i32 9
  %10 = load ptr, ptr %9, align 8, !tbaa !21
  store ptr %10, ptr %7, align 8, !tbaa !31
  %11 = load ptr, ptr %7, align 8, !tbaa !31
  %12 = getelementptr inbounds nuw %struct.BufferSourceContext, ptr %11, i32 0, i32 22
  store i32 1, ptr %12, align 4, !tbaa !76
  %13 = load ptr, ptr %4, align 8, !tbaa !19
  %14 = getelementptr inbounds nuw %struct.AVFilterContext, ptr %13, i32 0, i32 7
  %15 = load ptr, ptr %14, align 8, !tbaa !84
  %16 = getelementptr inbounds ptr, ptr %15, i64 0
  %17 = load ptr, ptr %16, align 8, !tbaa !85
  %18 = load i64, ptr %5, align 8, !tbaa !109
  call void @ff_avfilter_link_set_in_status(ptr noundef %17, i32 noundef -541478725, i64 noundef %18)
  %19 = load i32, ptr %6, align 4, !tbaa !36
  %20 = and i32 %19, 4
  %21 = icmp ne i32 %20, 0
  br i1 %21, label %22, label %27

22:                                               ; preds = %3
  %23 = load ptr, ptr %4, align 8, !tbaa !19
  %24 = getelementptr inbounds nuw %struct.AVFilterContext, ptr %23, i32 0, i32 10
  %25 = load ptr, ptr %24, align 8, !tbaa !108
  %26 = call i32 @push_frame(ptr noundef %25)
  br label %28

27:                                               ; preds = %3
  br label %28

28:                                               ; preds = %27, %22
  %29 = phi i32 [ %26, %22 ], [ 0, %27 ]
  call void @llvm.lifetime.end.p0(i64 8, ptr %7) #7
  ret i32 %29
}