; Function Attrs: nounwind uwtable
define range(i32 -2147483648, 1) i32 @av_buffersrc_close(ptr noundef readonly captures(none) %0, i64 noundef %1, i32 noundef %2) local_unnamed_addr #0 {
  %4 = getelementptr inbounds nuw i8, ptr %0, i64 72
  %5 = load ptr, ptr %4, align 8, !tbaa !17
  %6 = getelementptr inbounds nuw i8, ptr %5, i64 140
  store i32 1, ptr %6, align 4, !tbaa !66
  %7 = getelementptr inbounds nuw i8, ptr %0, i64 56
  %8 = load ptr, ptr %7, align 8, !tbaa !67
  %9 = load ptr, ptr %8, align 8, !tbaa !68
  tail call void @ff_avfilter_link_set_in_status(ptr noundef %9, i32 noundef -541478725, i64 noundef %1) #6
  %10 = and i32 %2, 4
  %.not = icmp eq i32 %10, 0
  br i1 %.not, label %push_frame.exit, label %11

11:                                               ; preds = %3
  %12 = getelementptr inbounds nuw i8, ptr %0, i64 80
  %13 = load ptr, ptr %12, align 8, !tbaa !70
  br label %14

14:                                               ; preds = %17, %11
  %15 = tail call i32 @ff_filter_graph_run_once(ptr noundef %13) #6
  %16 = icmp eq i32 %15, -11
  br i1 %16, label %push_frame.exit, label %17

17:                                               ; preds = %14
  %18 = icmp slt i32 %15, 0
  br i1 %18, label %push_frame.exit, label %14

push_frame.exit:                                  ; preds = %17, %14, %3
  %19 = phi i32 [ 0, %3 ], [ 0, %14 ], [ %15, %17 ]
  ret i32 %19
}